target datalayout = "e-m:e-p270:32:32-p271:32:32-p272:64:64-i64:64-i128:128-f80:128-n8:16:32:64-S128"
target triple = "x86_64-pc-linux-gnu"

@Curl_cstrdup = external global ptr, align 8

; Function Attrs: nounwind uwtable
define ptr @curl_getenv(ptr noundef %0) #0 {
  %2 = alloca ptr, align 8
  store ptr %0, ptr %2, align 8, !tbaa !3
  %3 = load ptr, ptr %2, align 8, !tbaa !3
  %4 = call ptr @GetEnv(ptr noundef %3)
  ret ptr %4
}

; Function Attrs: nounwind uwtable
define internal ptr @GetEnv(ptr noundef %0) #0 {
  %2 = alloca ptr, align 8
  %3 = alloca ptr, align 8
  store ptr %0, ptr %2, align 8, !tbaa !3
  call void @llvm.lifetime.start.p0(i64 8, ptr %3) #3
  %4 = load ptr, ptr %2, align 8, !tbaa !3
  %5 = call ptr @getenv(ptr noundef %4) #3
  store ptr %5, ptr %3, align 8, !tbaa !3
  %6 = load ptr, ptr %3, align 8, !tbaa !3
  %7 = icmp ne ptr %6, null
  br i1 %7, label %8, label %18

8:                                                ; preds = %1
  %9 = load ptr, ptr %3, align 8, !tbaa !3
  %10 = getelementptr inbounds i8, ptr %9, i64 0
  %11 = load i8, ptr %10, align 1, !tbaa !8
  %12 = sext i8 %11 to i32
  %13 = icmp ne i32 %12, 0
  br i1 %13, label %14, label %18

14:                                               ; preds = %8
  %15 = load ptr, ptr @Curl_cstrdup, align 8, !tbaa !9
  %16 = load ptr, ptr %3, align 8, !tbaa !3
  %17 = call ptr %15(ptr noundef %16)
  br label %19

18:                                               ; preds = %8, %1
  br label %19

19:                                               ; preds = %18, %14
  %20 = phi ptr [ %17, %14 ], [ null, %18 ]
  call void @llvm.lifetime.end.p0(i64 8, ptr %3) #3
  ret ptr %20
}

; Function Attrs: nocallback nofree nosync nounwind willreturn memory(argmem: readwrite)
declare void @llvm.lifetime.start.p0(i64 immarg, ptr captures(none)) #1

; Function Attrs: nounwind
declare ptr @getenv(ptr noundef) #2

; Function Attrs: nocallback nofree nosync nounwind willreturn memory(argmem: readwrite)
declare void @llvm.lifetime.end.p0(i64 immarg, ptr captures(none)) #1


!llvm.module.flags = !{!0, !1, !2}

!0 = !{i32 1, !"wchar_size", i32 4}
!1 = !{i32 8, !"PIC Level", i32 2}
!2 = !{i32 7, !"uwtable", i32 2}
!3 = !{!4, !4, i64 0}
!4 = !{!"p1 omnipotent char", !5, i64 0}
!5 = !{!"any pointer", !6, i64 0}
!6 = !{!"omnipotent char", !7, i64 0}
!7 = !{!"Simple C/C++ TBAA"}
!8 = !{!6, !6, i64 0}
!9 = !{!5, !5, i64 0}
